; Function Attrs: mustprogress nounwind uwtable
define internal fastcc void @"_ZZ26Z3_simplifier_using_paramsEN3$_0D2Ev"(ptr noundef nonnull align 8 dereferenceable(40) %this) unnamed_addr #7 align 2 personality ptr @__gxx_personality_v0 {
entry:
  %_M_manager.i.i = getelementptr inbounds i8, ptr %this, i64 24
  %0 = load ptr, ptr %_M_manager.i.i, align 8
  %tobool.not.i.i = icmp eq ptr %0, null
  br i1 %tobool.not.i.i, label %_ZNSt8functionIFP25dependent_expr_simplifierR11ast_managerRK10params_refR20dependent_expr_stateEED2Ev.exit, label %if.then.i.i

if.then.i.i:                                      ; preds = %entry
  %1 = getelementptr inbounds i8, ptr %this, i64 8
  %call.i.i = invoke noundef zeroext i1 %0(ptr noundef nonnull align 8 dereferenceable(16) %1, ptr noundef nonnull align 8 dereferenceable(16) %1, i32 noundef 3)
          to label %_ZNSt8functionIFP25dependent_expr_simplifierR11ast_managerRK10params_refR20dependent_expr_stateEED2Ev.exit unwind label %terminate.lpad.i.i

terminate.lpad.i.i:                               ; preds = %if.then.i.i
  %2 = landingpad { ptr, i32 }
          catch ptr null
  %3 = extractvalue { ptr, i32 } %2, 0
  tail call void @__clang_call_terminate(ptr %3) #20
  unreachable

_ZNSt8functionIFP25dependent_expr_simplifierR11ast_managerRK10params_refR20dependent_expr_stateEED2Ev.exit: ; preds = %entry, %if.then.i.i
  tail call void @_ZN10params_refD1Ev(ptr noundef nonnull align 8 dereferenceable(8) %this) #19
  ret void
}